Certificate:
    Data:
        Version: 3 (0x2)
        Serial Number: 4097 (0x1001)
    Signature Algorithm: sha256WithRSAEncryption
        Issuer: C=AU, ST=Some-State, O=Internet Widgits Pty Ltd
        Validity
            Not Before: Mar  1 00:41:48 2021 GMT
            Not After : Mar  1 00:41:48 2022 GMT
        Subject: C=AU, ST=Some-State, O=SEEDPKILab2020.com, CN=SEEDPKILab2020.com
        Subject Public Key Info:
            Public Key Algorithm: rsaEncryption
                Public-Key: (1024 bit)
                Modulus:
                    00:bb:46:25:57:ee:47:fc:b9:70:81:0f:9b:91:ae:
                    5e:33:18:ef:c2:ff:35:84:27:fb:85:ac:98:be:e1:
                    77:8a:7d:80:18:b6:a6:83:99:42:39:40:87:3c:6e:
                    16:c4:29:99:0e:ac:36:46:78:55:3a:92:24:b2:04:
                    fd:0a:63:7f:4e:c0:e8:be:92:62:c0:ee:45:0c:50:
                    22:8b:1b:08:6e:c1:6c:ae:1d:e2:87:8b:be:d9:45:
                    45:67:63:df:13:57:c1:4a:0a:9f:3e:96:fc:b2:f5:
                    47:fc:cc:b3:a6:82:45:5e:a8:62:3e:79:bd:d0:1c:
                    3d:5a:fb:0f:d8:dc:1d:43:e1
                Exponent: 65537 (0x10001)
        X509v3 extensions:
            X509v3 Basic Constraints: 
                CA:FALSE
            Netscape Comment: 
                OpenSSL Generated Certificate
            X509v3 Subject Key Identifier: 
                44:64:66:7F:65:5E:95:FA:AA:56:7C:23:5C:E1:FB:91:B3:6D:65:4C
            X509v3 Authority Key Identifier: 
                keyid:BE:13:AD:37:A0:E4:CA:E5:30:25:9F:88:79:24:29:BC:4B:B0:D6:99

    Signature Algorithm: sha256WithRSAEncryption
         42:3c:44:fe:b3:9d:fc:a7:87:60:50:7f:d5:2a:cd:14:6d:a0:
         38:59:cc:81:c3:5c:7e:5a:bf:d0:68:23:36:42:79:88:99:36:
         ea:d1:07:c1:a5:ed:5e:dd:07:5b:cf:44:8f:2a:1a:d6:81:4b:
         e3:6b:03:91:df:17:f0:3e:88:0c:c8:d3:6d:91:b6:ad:9e:2c:
         36:2e:1a:81:7a:6d:0f:3f:d4:6f:1e:6c:e6:26:95:69:f6:24:
         91:56:b6:76:f4:3a:e4:16:44:81:90:db:51:e0:58:1a:a9:ad:
         66:58:d4:a5:a4:78:d1:90:82:74:00:e1:f8:5e:0a:e3:c2:01:
         44:06:a4:cc:63:cc:d0:5a:9a:87:15:8b:9d:c0:a0:7b:41:25:
         99:a5:f7:34:4b:f9:86:be:29:03:1c:0a:ed:fc:01:8a:dd:ef:
         22:d8:53:e6:51:af:77:04:9b:a8:1a:b1:85:09:46:fb:b1:5f:
         91:3e:c1:11:9a:23:d7:09:88:22:35:d6:22:51:d0:55:b2:23:
         7c:be:93:5a:d0:28:01:ba:0f:e1:ce:73:5d:1d:35:c8:62:21:
         f6:0d:4b:9f:d9:19:71:0b:7b:03:e9:5a:bc:47:9c:be:16:11:
         08:d9:2c:a7:4c:b9:99:55:23:60:f8:9a:95:fe:70:f4:e5:af:
         c9:08:45:5e
-----BEGIN CERTIFICATE-----
MIIDFDCCAfygAwIBAgICEAEwDQYJKoZIhvcNAQELBQAwRTELMAkGA1UEBhMCQVUx
EzARBgNVBAgMClNvbWUtU3RhdGUxITAfBgNVBAoMGEludGVybmV0IFdpZGdpdHMg
UHR5IEx0ZDAeFw0yMTAzMDEwMDQxNDhaFw0yMjAzMDEwMDQxNDhaMFwxCzAJBgNV
BAYTAkFVMRMwEQYDVQQIDApTb21lLVN0YXRlMRswGQYDVQQKDBJTRUVEUEtJTGFi
MjAyMC5jb20xGzAZBgNVBAMMElNFRURQS0lMYWIyMDIwLmNvbTCBnzANBgkqhkiG
9w0BAQEFAAOBjQAwgYkCgYEAu0YlV+5H/LlwgQ+bka5eMxjvwv81hCf7hayYvuF3
in2AGLamg5lCOUCHPG4WxCmZDqw2RnhVOpIksgT9CmN/TsDovpJiwO5FDFAiixsI
bsFsrh3ih4u+2UVFZ2PfE1fBSgqfPpb8svVH/MyzpoJFXqhiPnm90Bw9WvsP2Nwd
Q+ECAwEAAaN7MHkwCQYDVR0TBAIwADAsBglghkgBhvhCAQ0EHxYdT3BlblNTTCBH
ZW5lcmF0ZWQgQ2VydGlmaWNhdGUwHQYDVR0OBBYEFERkZn9lXpX6qlZ8I1zh+5Gz
bWVMMB8GA1UdIwQYMBaAFL4TrTeg5MrlMCWfiHkkKbxLsNaZMA0GCSqGSIb3DQEB
CwUAA4IBAQBCPET+s538p4dgUH/VKs0UbaA4WcyBw1x+Wr/QaCM2QnmImTbq0QfB
pe1e3Qdbz0SPKhrWgUvjawOR3xfwPogMyNNtkbatniw2LhqBem0PP9RvHmzmJpVp
9iSRVrZ29DrkFkSBkNtR4Fgaqa1mWNSlpHjRkIJ0AOH4XgrjwgFEBqTMY8zQWpqH
FYudwKB7QSWZpfc0S/mGvikDHArt/AGK3e8i2FPmUa93BJuoGrGFCUb7sV+RPsER
miPXCYgiNdYiUdBVsiN8vpNa0CgBug/hznNdHTXIYiH2DUuf2RlxC3sD6Vq8R5y+
FhEI2SynTLmZVSNg+JqV/nD05a/JCEVe
-----END CERTIFICATE-----
