Certificate:
    Data:
        Version: 3 (0x2)
        Serial Number: 4096 (0x1000)
    Signature Algorithm: sha256WithRSAEncryption
        Issuer: C=AU, ST=Some-State, O=Internet Widgits Pty Ltd
        Validity
            Not Before: Mar  1 00:25:24 2021 GMT
            Not After : Mar  1 00:25:24 2022 GMT
        Subject: C=AU, ST=Some-State, O=Internet Widgits Pty Ltd, CN=SEEDPKILab2020.com
        Subject Public Key Info:
            Public Key Algorithm: rsaEncryption
                Public-Key: (1024 bit)
                Modulus:
                    00:bb:46:25:57:ee:47:fc:b9:70:81:0f:9b:91:ae:
                    5e:33:18:ef:c2:ff:35:84:27:fb:85:ac:98:be:e1:
                    77:8a:7d:80:18:b6:a6:83:99:42:39:40:87:3c:6e:
                    16:c4:29:99:0e:ac:36:46:78:55:3a:92:24:b2:04:
                    fd:0a:63:7f:4e:c0:e8:be:92:62:c0:ee:45:0c:50:
                    22:8b:1b:08:6e:c1:6c:ae:1d:e2:87:8b:be:d9:45:
                    45:67:63:df:13:57:c1:4a:0a:9f:3e:96:fc:b2:f5:
                    47:fc:cc:b3:a6:82:45:5e:a8:62:3e:79:bd:d0:1c:
                    3d:5a:fb:0f:d8:dc:1d:43:e1
                Exponent: 65537 (0x10001)
        X509v3 extensions:
            X509v3 Basic Constraints: 
                CA:FALSE
            Netscape Comment: 
                OpenSSL Generated Certificate
            X509v3 Subject Key Identifier: 
                44:64:66:7F:65:5E:95:FA:AA:56:7C:23:5C:E1:FB:91:B3:6D:65:4C
            X509v3 Authority Key Identifier: 
                keyid:BE:13:AD:37:A0:E4:CA:E5:30:25:9F:88:79:24:29:BC:4B:B0:D6:99

    Signature Algorithm: sha256WithRSAEncryption
         2e:6b:a4:5d:87:84:73:01:d3:b2:91:18:a8:19:ed:cb:4a:d2:
         cf:c0:a4:2a:98:91:10:36:28:39:9f:97:7b:ad:18:6a:f8:90:
         19:f1:35:66:aa:5c:69:e0:f3:ea:68:97:83:3d:6b:3b:c4:04:
         90:a8:3c:9f:a5:4e:77:93:44:ec:08:1b:5b:a3:94:d8:07:14:
         d5:94:77:77:10:af:cb:b3:4d:1f:7e:d0:f2:a6:e8:b4:86:28:
         3f:38:64:01:be:e8:32:aa:b4:0c:2d:6c:52:37:0b:55:bb:b8:
         c4:f1:cd:d3:5b:45:33:f9:82:7c:23:2d:2b:22:dd:5a:47:65:
         f5:57:5d:71:74:26:9b:bb:54:78:8c:a7:6b:6b:ee:ce:9f:15:
         5b:fe:f8:07:87:47:e9:7a:b4:dc:ca:75:44:95:20:e4:b7:c0:
         f9:6e:69:ed:d4:5a:56:de:6c:00:ce:b6:af:eb:00:5d:00:dd:
         bb:a3:8c:45:3e:0f:b6:b6:2b:09:8a:7a:92:7d:56:6b:b7:35:
         49:8f:7f:92:61:3a:2a:3b:5d:e7:09:f9:08:ce:be:b2:6c:3a:
         f0:5c:ef:22:05:71:65:83:38:1b:dc:bc:f6:73:0b:45:65:c4:
         1a:aa:44:22:f2:28:5e:86:7a:b4:ea:6b:dd:7a:fc:23:ff:73:
         9b:44:07:93
-----BEGIN CERTIFICATE-----
MIIDGjCCAgKgAwIBAgICEAAwDQYJKoZIhvcNAQELBQAwRTELMAkGA1UEBhMCQVUx
EzARBgNVBAgMClNvbWUtU3RhdGUxITAfBgNVBAoMGEludGVybmV0IFdpZGdpdHMg
UHR5IEx0ZDAeFw0yMTAzMDEwMDI1MjRaFw0yMjAzMDEwMDI1MjRaMGIxCzAJBgNV
BAYTAkFVMRMwEQYDVQQIDApTb21lLVN0YXRlMSEwHwYDVQQKDBhJbnRlcm5ldCBX
aWRnaXRzIFB0eSBMdGQxGzAZBgNVBAMMElNFRURQS0lMYWIyMDIwLmNvbTCBnzAN
BgkqhkiG9w0BAQEFAAOBjQAwgYkCgYEAu0YlV+5H/LlwgQ+bka5eMxjvwv81hCf7
hayYvuF3in2AGLamg5lCOUCHPG4WxCmZDqw2RnhVOpIksgT9CmN/TsDovpJiwO5F
DFAiixsIbsFsrh3ih4u+2UVFZ2PfE1fBSgqfPpb8svVH/MyzpoJFXqhiPnm90Bw9
WvsP2NwdQ+ECAwEAAaN7MHkwCQYDVR0TBAIwADAsBglghkgBhvhCAQ0EHxYdT3Bl
blNTTCBHZW5lcmF0ZWQgQ2VydGlmaWNhdGUwHQYDVR0OBBYEFERkZn9lXpX6qlZ8
I1zh+5GzbWVMMB8GA1UdIwQYMBaAFL4TrTeg5MrlMCWfiHkkKbxLsNaZMA0GCSqG
SIb3DQEBCwUAA4IBAQAua6Rdh4RzAdOykRioGe3LStLPwKQqmJEQNig5n5d7rRhq
+JAZ8TVmqlxp4PPqaJeDPWs7xASQqDyfpU53k0TsCBtbo5TYBxTVlHd3EK/Ls00f
ftDypui0hig/OGQBvugyqrQMLWxSNwtVu7jE8c3TW0Uz+YJ8Iy0rIt1aR2X1V11x
dCabu1R4jKdra+7OnxVb/vgHh0fperTcynVElSDkt8D5bmnt1FpW3mwAzrav6wBd
AN27o4xFPg+2tisJinqSfVZrtzVJj3+SYToqO13nCfkIzr6ybDrwXO8iBXFlgzgb
3Lz2cwtFZcQaqkQi8ihehnq06mvdevwj/3ObRAeT
-----END CERTIFICATE-----
